; Function Attrs: mustprogress nounwind uwtable
define internal void @_ZN12_GLOBAL__N_119TransformSelectorAtD0Ev(ptr noundef nonnull align 8 dereferenceable(64) %0) unnamed_addr #6 align 2 personality ptr @__gxx_personality_v0 {
  store ptr getelementptr inbounds ({ [8 x ptr] }, ptr @_ZTVN12_GLOBAL__N_124TransformSelectorIndexesE, i64 0, i32 0, i64 2), ptr %0, align 8
  %2 = getelementptr inbounds i8, ptr %0, i64 40
  %3 = load ptr, ptr %2, align 8
  %.not.i.i.i.i.i = icmp eq ptr %3, null
  br i1 %.not.i.i.i.i.i, label %_ZN12_GLOBAL__N_119TransformSelectorAtD2Ev.exit, label %4

4:                                                ; preds = %1
  tail call void @_ZdlPv(ptr noundef nonnull %3) #29
  br label %_ZN12_GLOBAL__N_119TransformSelectorAtD2Ev.exit

_ZN12_GLOBAL__N_119TransformSelectorAtD2Ev.exit:  ; preds = %1, %4
  store ptr getelementptr inbounds ({ [8 x ptr] }, ptr @_ZTVN12_GLOBAL__N_117TransformSelectorE, i64 0, i32 0, i64 2), ptr %0, align 8
  %5 = getelementptr inbounds i8, ptr %0, i64 8
  tail call void @_ZNSt7__cxx1112basic_stringIcSt11char_traitsIcESaIcEED1Ev(ptr noundef nonnull align 8 dereferenceable(32) %5) #27
  tail call void @_ZdlPv(ptr noundef nonnull %0) #29
  ret void
}